; Function Attrs: mustprogress null_pointer_is_valid sspstrong uwtable
define void @_ZN9ProtoTree20selectedFrameChangedE5QListIiE(ptr noundef align 8 dereferenceable_or_null(208) %0, ptr noundef readonly captures(none) %1) #0 align 2 {
  %3 = getelementptr inbounds nuw i8, ptr %1, i64 16
  %4 = load i64, ptr %3, align 8
  %5 = icmp eq i64 %4, 1
  br i1 %5, label %6, label %16

6:                                                ; preds = %2
  %7 = getelementptr inbounds nuw i8, ptr %0, i64 192
  %8 = load ptr, ptr %7, align 8
  %.not = icmp eq ptr %8, null
  br i1 %.not, label %16, label %9

9:                                                ; preds = %6
  %10 = getelementptr inbounds nuw i8, ptr %8, i64 360
  %11 = load ptr, ptr %10, align 8
  %.not3 = icmp eq ptr %11, null
  br i1 %.not3, label %16, label %12

12:                                               ; preds = %9
  %13 = getelementptr inbounds nuw i8, ptr %11, i64 16
  %14 = load ptr, ptr %13, align 8
  %.not4 = icmp eq ptr %14, null
  br i1 %.not4, label %16, label %15

15:                                               ; preds = %12
  tail call void @_ZN9ProtoTree11setRootNodeEP11_proto_node(ptr noundef align 8 dereferenceable_or_null(208) %0, ptr noundef nonnull %14)
  br label %19

16:                                               ; preds = %12, %9, %6, %2
  %17 = getelementptr inbounds nuw i8, ptr %0, i64 40
  %18 = load ptr, ptr %17, align 8
  tail call void @_ZN14ProtoTreeModel11setRootNodeEP11_proto_node(ptr noundef align 8 dereferenceable_or_null(24) %18, ptr noundef null)
  br label %19

19:                                               ; preds = %16, %15
  ret void
}